target datalayout = "e-m:e-p270:32:32-p271:32:32-p272:64:64-i64:64-i128:128-f80:128-n8:16:32:64-S128"
target triple = "x86_64-pc-linux-gnu"

%class.QString = type { %struct.QArrayDataPointer }
%struct.QArrayDataPointer = type { ptr, ptr, i64 }
%class.TapParameterDialog = type { %class.WiresharkDialog.base, ptr, %class.QMenu, %class.QList.1, i32, ptr }
%class.WiresharkDialog.base = type <{ %class.GeometryStateDialog, ptr, i8, [7 x i8], %class.QString, %class.QList, i32, i8 }>
%class.GeometryStateDialog = type { %class.QDialog, %class.QString, ptr }
%class.QDialog = type { %class.QWidget }
%class.QWidget = type { %class.QObject, %class.QPaintDevice.base, ptr }
%class.QObject = type { ptr, %class.QScopedPointer }
%class.QScopedPointer = type { ptr }
%class.QPaintDevice.base = type <{ ptr, i16 }>
%class.QList = type { %struct.QArrayDataPointer.0 }
%struct.QArrayDataPointer.0 = type { ptr, ptr, i64 }
%class.QMenu = type { %class.QWidget }
%class.QList.1 = type { %struct.QArrayDataPointer.4 }
%struct.QArrayDataPointer.4 = type { ptr, ptr, i64 }
%class.Ui_TapParameterDialog = type { ptr, ptr, ptr, ptr, ptr, ptr, ptr, ptr, ptr, ptr }
%class.WiresharkDialog = type <{ %class.GeometryStateDialog, ptr, i8, [7 x i8], %class.QString, %class.QList, i32, i8, [3 x i8] }>

; Function Attrs: mustprogress null_pointer_is_valid sspstrong uwtable
define void @_ZN18TapParameterDialog13updateWidgetsEv(ptr noundef align 8 dereferenceable_or_null(232) %0) unnamed_addr #5 align 2 {
  %2 = alloca ptr, align 8
  %3 = alloca i8, align 1
  %4 = alloca i8, align 1
  store ptr %0, ptr %2, align 8
  %5 = load ptr, ptr %2, align 8
  call void @llvm.lifetime.start.p0(i64 1, ptr %3) #2
  store i8 1, ptr %3, align 1
  call void @llvm.lifetime.start.p0(i64 1, ptr %4) #2
  store i8 1, ptr %4, align 1
  %6 = getelementptr inbounds nuw %class.WiresharkDialog, ptr %5, i32 0, i32 2
  %7 = load i8, ptr %6, align 8, !range !6, !noundef !7
  %8 = trunc i8 %7 to i1
  br i1 %8, label %13, label %9

9:                                                ; preds = %1
  %10 = getelementptr inbounds nuw %class.WiresharkDialog, ptr %5, i32 0, i32 1
  %11 = load ptr, ptr %10, align 8
  %12 = call noundef zeroext i1 @_ZNK11CaptureFile7isValidEv(ptr noundef align 8 dereferenceable_or_null(48) %11)
  br i1 %12, label %14, label %13

13:                                               ; preds = %9, %1
  store i8 0, ptr %3, align 1
  store i8 0, ptr %4, align 1
  br label %22

14:                                               ; preds = %9
  %15 = getelementptr inbounds nuw %class.TapParameterDialog, ptr %5, i32 0, i32 1
  %16 = load ptr, ptr %15, align 8
  %17 = getelementptr inbounds nuw %class.Ui_TapParameterDialog, ptr %16, i32 0, i32 7
  %18 = load ptr, ptr %17, align 8
  %19 = call noundef zeroext i1 @_ZN17DisplayFilterEdit11checkFilterEv(ptr noundef align 8 dereferenceable_or_null(376) %18)
  br i1 %19, label %21, label %20

20:                                               ; preds = %14
  store i8 0, ptr %4, align 1
  br label %21

21:                                               ; preds = %20, %14
  br label %22

22:                                               ; preds = %21, %13
  %23 = getelementptr inbounds nuw %class.TapParameterDialog, ptr %5, i32 0, i32 1
  %24 = load ptr, ptr %23, align 8
  %25 = getelementptr inbounds nuw %class.Ui_TapParameterDialog, ptr %24, i32 0, i32 7
  %26 = load ptr, ptr %25, align 8
  %27 = load i8, ptr %3, align 1, !range !6, !noundef !7
  %28 = trunc i8 %27 to i1
  call void @_ZN7QWidget10setEnabledEb(ptr noundef align 8 dereferenceable_or_null(40) %26, i1 noundef zeroext %28)
  %29 = getelementptr inbounds nuw %class.TapParameterDialog, ptr %5, i32 0, i32 1
  %30 = load ptr, ptr %29, align 8
  %31 = getelementptr inbounds nuw %class.Ui_TapParameterDialog, ptr %30, i32 0, i32 8
  %32 = load ptr, ptr %31, align 8
  %33 = load i8, ptr %4, align 1, !range !6, !noundef !7
  %34 = trunc i8 %33 to i1
  call void @_ZN7QWidget10setEnabledEb(ptr noundef align 8 dereferenceable_or_null(40) %32, i1 noundef zeroext %34)
  call void @_ZN15WiresharkDialog13updateWidgetsEv(ptr noundef align 8 dereferenceable_or_null(141) %5)
  call void @llvm.lifetime.end.p0(i64 1, ptr %4) #2
  call void @llvm.lifetime.end.p0(i64 1, ptr %3) #2
  ret void
}